---
triple:          'arm64-apple-darwin'
binary-path:     getPrimes
relocations:
  - { offsetInCU: 0x2D77, offset: 0x2D77, size: 0x8, addend: 0x0, symName: __ZNSt3__124__put_character_sequenceB7v160006IcNS_11char_traitsIcEEEERNS_13basic_ostreamIT_T0_EES7_PKS4_m, symObjAddr: 0x2F8, symBinAddr: 0x100003144, symSize: 0x1F4 }
  - { offsetInCU: 0x46AE, offset: 0x46AE, size: 0x8, addend: 0x0, symName: __ZNSt3__1lsB7v160006INS_11char_traitsIcEEEERNS_13basic_ostreamIcT_EES6_PKc, symObjAddr: 0x22C, symBinAddr: 0x100003078, symSize: 0x48 }
  - { offsetInCU: 0x46F4, offset: 0x46F4, size: 0x8, addend: 0x0, symName: __ZNSt3__14endlB7v160006IcNS_11char_traitsIcEEEERNS_13basic_ostreamIT_T0_EES7_, symObjAddr: 0x2A0, symBinAddr: 0x1000030EC, symSize: 0x58 }
  - { offsetInCU: 0x4734, offset: 0x4734, size: 0x8, addend: 0x0, symName: __ZNSt3__116__pad_and_outputB7v160006IcNS_11char_traitsIcEEEENS_19ostreambuf_iteratorIT_T0_EES6_PKS4_S8_S8_RNS_8ios_baseES4_, symObjAddr: 0x550, symBinAddr: 0x10000339C, symSize: 0x248 }
  - { offsetInCU: 0x4803, offset: 0x4803, size: 0x8, addend: 0x0, symName: __ZNSt3__119__debug_db_insert_cB7v160006INS_12basic_stringIcNS_11char_traitsIcEENS_9allocatorIcEEEEEEvPT_, symObjAddr: 0xA18, symBinAddr: 0x100003864, symSize: 0x10 }
  - { offsetInCU: 0x4834, offset: 0x4834, size: 0x8, addend: 0x0, symName: __ZNSt3__112__to_addressB7v160006IKcEEPT_S3_, symObjAddr: 0xAE4, symBinAddr: 0x100003930, symSize: 0x14 }
  - { offsetInCU: 0x4869, offset: 0x4869, size: 0x8, addend: 0x0, symName: __ZNSt3__130__libcpp_is_constant_evaluatedB7v160006Ev, symObjAddr: 0xC10, symBinAddr: 0x100003A5C, symSize: 0xC }
  - { offsetInCU: 0x48B9, offset: 0x48B9, size: 0x8, addend: 0x0, symName: __ZNSt3__19use_facetB7v160006INS_5ctypeIcEEEERKT_RKNS_6localeE, symObjAddr: 0xDC8, symBinAddr: 0x100003C14, symSize: 0x2C }
  - { offsetInCU: 0x4D88, offset: 0x4D88, size: 0x8, addend: 0x0, symName: __ZNSt3__118__constexpr_strlenB7v160006EPKc, symObjAddr: 0xE60, symBinAddr: 0x100003CAC, symSize: 0x24 }
  - { offsetInCU: 0x720C, offset: 0x720C, size: 0x8, addend: 0x0, symName: __Z7isPrimei, symObjAddr: 0x0, symBinAddr: 0x100002E4C, symSize: 0xCC }
  - { offsetInCU: 0x7254, offset: 0x7254, size: 0x8, addend: 0x0, symName: __Z16firstPrimeBelowNi, symObjAddr: 0xCC, symBinAddr: 0x100002F18, symSize: 0x80 }
  - { offsetInCU: 0x729C, offset: 0x729C, size: 0x8, addend: 0x0, symName: _main, symObjAddr: 0x14C, symBinAddr: 0x100002F98, symSize: 0xE0 }
  - { offsetInCU: 0x72E0, offset: 0x72E0, size: 0x8, addend: 0x0, symName: __ZNSt3__113basic_ostreamIcNS_11char_traitsIcEEElsB7v160006EPFRS3_S4_E, symObjAddr: 0x274, symBinAddr: 0x1000030C0, symSize: 0x2C }
  - { offsetInCU: 0x7312, offset: 0x7312, size: 0x8, addend: 0x0, symName: __ZNSt3__111char_traitsIcE6lengthEPKc, symObjAddr: 0x4EC, symBinAddr: 0x100003338, symSize: 0x48 }
  - { offsetInCU: 0x7352, offset: 0x7352, size: 0x8, addend: 0x0, symName: __ZNKSt3__113basic_ostreamIcNS_11char_traitsIcEEE6sentrycvbB7v160006Ev, symObjAddr: 0x534, symBinAddr: 0x100003380, symSize: 0x1C }
  - { offsetInCU: 0x7376, offset: 0x7376, size: 0x8, addend: 0x0, symName: __ZNSt3__119ostreambuf_iteratorIcNS_11char_traitsIcEEEC1B7v160006ERNS_13basic_ostreamIcS2_EE, symObjAddr: 0x798, symBinAddr: 0x1000035E4, symSize: 0x34 }
  - { offsetInCU: 0x73AC, offset: 0x73AC, size: 0x8, addend: 0x0, symName: __ZNKSt3__18ios_base5flagsB7v160006Ev, symObjAddr: 0x7CC, symBinAddr: 0x100003618, symSize: 0x18 }
  - { offsetInCU: 0x73D2, offset: 0x73D2, size: 0x8, addend: 0x0, symName: __ZNKSt3__19basic_iosIcNS_11char_traitsIcEEE4fillB7v160006Ev, symObjAddr: 0x7E4, symBinAddr: 0x100003630, symSize: 0x64 }
  - { offsetInCU: 0x73F8, offset: 0x73F8, size: 0x8, addend: 0x0, symName: __ZNKSt3__119ostreambuf_iteratorIcNS_11char_traitsIcEEE6failedB7v160006Ev, symObjAddr: 0x848, symBinAddr: 0x100003694, symSize: 0x24 }
  - { offsetInCU: 0x741C, offset: 0x741C, size: 0x8, addend: 0x0, symName: __ZNSt3__19basic_iosIcNS_11char_traitsIcEEE8setstateB7v160006Ej, symObjAddr: 0x86C, symBinAddr: 0x1000036B8, symSize: 0x2C }
  - { offsetInCU: 0x744F, offset: 0x744F, size: 0x8, addend: 0x0, symName: __ZNKSt3__18ios_base5widthB7v160006Ev, symObjAddr: 0x8A4, symBinAddr: 0x1000036F0, symSize: 0x18 }
  - { offsetInCU: 0x7475, offset: 0x7475, size: 0x8, addend: 0x0, symName: __ZNSt3__115basic_streambufIcNS_11char_traitsIcEEE5sputnB7v160006EPKcl, symObjAddr: 0x8BC, symBinAddr: 0x100003708, symSize: 0x3C }
  - { offsetInCU: 0x74B5, offset: 0x74B5, size: 0x8, addend: 0x0, symName: __ZNSt3__112basic_stringIcNS_11char_traitsIcEENS_9allocatorIcEEEC1B7v160006Emc, symObjAddr: 0x8F8, symBinAddr: 0x100003744, symSize: 0x3C }
  - { offsetInCU: 0x74FB, offset: 0x74FB, size: 0x8, addend: 0x0, symName: __ZNKSt3__112basic_stringIcNS_11char_traitsIcEENS_9allocatorIcEEE4dataB7v160006Ev, symObjAddr: 0x934, symBinAddr: 0x100003780, symSize: 0x28 }
  - { offsetInCU: 0x751F, offset: 0x751F, size: 0x8, addend: 0x0, symName: __ZNSt3__18ios_base5widthB7v160006El, symObjAddr: 0x95C, symBinAddr: 0x1000037A8, symSize: 0x2C }
  - { offsetInCU: 0x7563, offset: 0x7563, size: 0x8, addend: 0x0, symName: __ZNSt3__112basic_stringIcNS_11char_traitsIcEENS_9allocatorIcEEEC2B7v160006Emc, symObjAddr: 0x988, symBinAddr: 0x1000037D4, symSize: 0x54 }
  - { offsetInCU: 0x75AE, offset: 0x75AE, size: 0x8, addend: 0x0, symName: __ZNSt3__117__compressed_pairINS_12basic_stringIcNS_11char_traitsIcEENS_9allocatorIcEEE5__repES5_EC1B7v160006INS_18__default_init_tagESA_EEOT_OT0_, symObjAddr: 0x9DC, symBinAddr: 0x100003828, symSize: 0x3C }
  - { offsetInCU: 0x7604, offset: 0x7604, size: 0x8, addend: 0x0, symName: __ZNSt3__117__compressed_pairINS_12basic_stringIcNS_11char_traitsIcEENS_9allocatorIcEEE5__repES5_EC2B7v160006INS_18__default_init_tagESA_EEOT_OT0_, symObjAddr: 0xA28, symBinAddr: 0x100003874, symSize: 0x3C }
  - { offsetInCU: 0x765A, offset: 0x765A, size: 0x8, addend: 0x0, symName: __ZNSt3__122__compressed_pair_elemINS_12basic_stringIcNS_11char_traitsIcEENS_9allocatorIcEEE5__repELi0ELb0EEC2B7v160006ENS_18__default_init_tagE, symObjAddr: 0xA64, symBinAddr: 0x1000038B0, symSize: 0x14 }
  - { offsetInCU: 0x768C, offset: 0x768C, size: 0x8, addend: 0x0, symName: __ZNSt3__122__compressed_pair_elemINS_9allocatorIcEELi1ELb1EEC2B7v160006ENS_18__default_init_tagE, symObjAddr: 0xA78, symBinAddr: 0x1000038C4, symSize: 0x2C }
  - { offsetInCU: 0x76BE, offset: 0x76BE, size: 0x8, addend: 0x0, symName: __ZNSt3__19allocatorIcEC2B7v160006Ev, symObjAddr: 0xAA4, symBinAddr: 0x1000038F0, symSize: 0x2C }
  - { offsetInCU: 0x76E6, offset: 0x76E6, size: 0x8, addend: 0x0, symName: __ZNSt3__116__non_trivial_ifILb1ENS_9allocatorIcEEEC2B7v160006Ev, symObjAddr: 0xAD0, symBinAddr: 0x10000391C, symSize: 0x14 }
  - { offsetInCU: 0x770E, offset: 0x770E, size: 0x8, addend: 0x0, symName: __ZNKSt3__112basic_stringIcNS_11char_traitsIcEENS_9allocatorIcEEE13__get_pointerB7v160006Ev, symObjAddr: 0xAF8, symBinAddr: 0x100003944, symSize: 0x54 }
  - { offsetInCU: 0x7732, offset: 0x7732, size: 0x8, addend: 0x0, symName: __ZNKSt3__112basic_stringIcNS_11char_traitsIcEENS_9allocatorIcEEE9__is_longB7v160006Ev, symObjAddr: 0xB4C, symBinAddr: 0x100003998, symSize: 0x74 }
  - { offsetInCU: 0x7756, offset: 0x7756, size: 0x8, addend: 0x0, symName: __ZNKSt3__112basic_stringIcNS_11char_traitsIcEENS_9allocatorIcEEE18__get_long_pointerB7v160006Ev, symObjAddr: 0xBC0, symBinAddr: 0x100003A0C, symSize: 0x28 }
  - { offsetInCU: 0x777A, offset: 0x777A, size: 0x8, addend: 0x0, symName: __ZNKSt3__112basic_stringIcNS_11char_traitsIcEENS_9allocatorIcEEE19__get_short_pointerB7v160006Ev, symObjAddr: 0xBE8, symBinAddr: 0x100003A34, symSize: 0x28 }
  - { offsetInCU: 0x779E, offset: 0x779E, size: 0x8, addend: 0x0, symName: __ZNKSt3__117__compressed_pairINS_12basic_stringIcNS_11char_traitsIcEENS_9allocatorIcEEE5__repES5_E5firstB7v160006Ev, symObjAddr: 0xC1C, symBinAddr: 0x100003A68, symSize: 0x24 }
  - { offsetInCU: 0x77C2, offset: 0x77C2, size: 0x8, addend: 0x0, symName: __ZNKSt3__122__compressed_pair_elemINS_12basic_stringIcNS_11char_traitsIcEENS_9allocatorIcEEE5__repELi0ELb0EE5__getB7v160006Ev, symObjAddr: 0xC40, symBinAddr: 0x100003A8C, symSize: 0x14 }
  - { offsetInCU: 0x77E6, offset: 0x77E6, size: 0x8, addend: 0x0, symName: __ZNSt3__114pointer_traitsIPKcE10pointer_toB7v160006ERS1_, symObjAddr: 0xC54, symBinAddr: 0x100003AA0, symSize: 0x14 }
  - { offsetInCU: 0x7808, offset: 0x7808, size: 0x8, addend: 0x0, symName: __ZNSt3__119ostreambuf_iteratorIcNS_11char_traitsIcEEEC2B7v160006ERNS_13basic_ostreamIcS2_EE, symObjAddr: 0xC68, symBinAddr: 0x100003AB4, symSize: 0x68 }
  - { offsetInCU: 0x783E, offset: 0x783E, size: 0x8, addend: 0x0, symName: __ZNKSt3__19basic_iosIcNS_11char_traitsIcEEE5rdbufB7v160006Ev, symObjAddr: 0xCD0, symBinAddr: 0x100003B1C, symSize: 0x24 }
  - { offsetInCU: 0x7864, offset: 0x7864, size: 0x8, addend: 0x0, symName: __ZNKSt3__18ios_base5rdbufB7v160006Ev, symObjAddr: 0xCF4, symBinAddr: 0x100003B40, symSize: 0x18 }
  - { offsetInCU: 0x7888, offset: 0x7888, size: 0x8, addend: 0x0, symName: __ZNSt3__111char_traitsIcE11eq_int_typeEii, symObjAddr: 0xD0C, symBinAddr: 0x100003B58, symSize: 0x28 }
  - { offsetInCU: 0x78B8, offset: 0x78B8, size: 0x8, addend: 0x0, symName: __ZNSt3__111char_traitsIcE3eofEv, symObjAddr: 0xD34, symBinAddr: 0x100003B80, symSize: 0x8 }
  - { offsetInCU: 0x78CB, offset: 0x78CB, size: 0x8, addend: 0x0, symName: __ZNKSt3__19basic_iosIcNS_11char_traitsIcEEE5widenB7v160006Ec, symObjAddr: 0xD3C, symBinAddr: 0x100003B88, symSize: 0x8C }
  - { offsetInCU: 0x7937, offset: 0x7937, size: 0x8, addend: 0x0, symName: __ZNKSt3__15ctypeIcE5widenB7v160006Ec, symObjAddr: 0xDF4, symBinAddr: 0x100003C40, symSize: 0x38 }
  - { offsetInCU: 0x796A, offset: 0x796A, size: 0x8, addend: 0x0, symName: __ZNSt3__18ios_base8setstateB7v160006Ej, symObjAddr: 0xE2C, symBinAddr: 0x100003C78, symSize: 0x34 }
...
